target datalayout = "e-m:e-p270:32:32-p271:32:32-p272:64:64-i64:64-i128:128-f80:128-n8:16:32:64-S128"
target triple = "x86_64-pc-linux-gnu"

%struct.conf_method_st = type { ptr, ptr, ptr, ptr, ptr, ptr, ptr, ptr, ptr, ptr }
%struct.conf_st = type { ptr, ptr, ptr, i32, i32, ptr, ptr }

@.str.1 = private unnamed_addr constant [34 x i8] c"../openssl/crypto/conf/conf_lib.c\00", align 1
@__func__.NCONF_load_fp = private unnamed_addr constant [14 x i8] c"NCONF_load_fp\00", align 1
@__func__.NCONF_load_bio = private unnamed_addr constant [15 x i8] c"NCONF_load_bio\00", align 1

; Function Attrs: nounwind uwtable
define i32 @NCONF_load_bio(ptr noundef %0, ptr noundef %1, ptr noundef %2) #0 {
  %4 = alloca i32, align 4
  %5 = alloca ptr, align 8
  %6 = alloca ptr, align 8
  %7 = alloca ptr, align 8
  store ptr %0, ptr %5, align 8, !tbaa !3
  store ptr %1, ptr %6, align 8, !tbaa !22
  store ptr %2, ptr %7, align 8, !tbaa !20
  %8 = load ptr, ptr %5, align 8, !tbaa !3
  %9 = icmp eq ptr %8, null
  br i1 %9, label %10, label %11

10:                                               ; preds = %3
  call void @ERR_new()
  call void @ERR_set_debug(ptr noundef @.str.1, i32 noundef 279, ptr noundef @__func__.NCONF_load_bio)
  call void (i32, i32, ptr, ...) @ERR_set_error(i32 noundef 14, i32 noundef 105, ptr noundef null)
  store i32 0, ptr %4, align 4
  br label %21

11:                                               ; preds = %3
  %12 = load ptr, ptr %5, align 8, !tbaa !3
  %13 = getelementptr inbounds nuw %struct.conf_st, ptr %12, i32 0, i32 0
  %14 = load ptr, ptr %13, align 8, !tbaa !27
  %15 = getelementptr inbounds nuw %struct.conf_method_st, ptr %14, i32 0, i32 5
  %16 = load ptr, ptr %15, align 8, !tbaa !28
  %17 = load ptr, ptr %5, align 8, !tbaa !3
  %18 = load ptr, ptr %6, align 8, !tbaa !22
  %19 = load ptr, ptr %7, align 8, !tbaa !20
  %20 = call i32 %16(ptr noundef %17, ptr noundef %18, ptr noundef %19)
  store i32 %20, ptr %4, align 4
  br label %21

21:                                               ; preds = %11, %10
  %22 = load i32, ptr %4, align 4
  ret i32 %22
}

; Function Attrs: nounwind uwtable
define i32 @NCONF_load_fp(ptr noundef %0, ptr noundef %1, ptr noundef %2) #0 {
  %4 = alloca i32, align 4
  %5 = alloca ptr, align 8
  %6 = alloca ptr, align 8
  %7 = alloca ptr, align 8
  %8 = alloca ptr, align 8
  %9 = alloca i32, align 4
  %10 = alloca i32, align 4
  store ptr %0, ptr %5, align 8, !tbaa !3
  store ptr %1, ptr %6, align 8, !tbaa !25
  store ptr %2, ptr %7, align 8, !tbaa !20
  call void @llvm.lifetime.start.p0(i64 8, ptr %8) #8
  call void @llvm.lifetime.start.p0(i64 4, ptr %9) #8
  %11 = load ptr, ptr %6, align 8, !tbaa !25
  %12 = call ptr @BIO_new_fp(ptr noundef %11, i32 noundef 0)
  store ptr %12, ptr %8, align 8, !tbaa !22
  %13 = icmp eq ptr %12, null
  br i1 %13, label %14, label %15

14:                                               ; preds = %3
  call void @ERR_new()
  call void @ERR_set_debug(ptr noundef @.str.1, i32 noundef 267, ptr noundef @__func__.NCONF_load_fp)
  call void (i32, i32, ptr, ...) @ERR_set_error(i32 noundef 14, i32 noundef 524295, ptr noundef null)
  store i32 0, ptr %4, align 4
  store i32 1, ptr %10, align 4
  br label %23

15:                                               ; preds = %3
  %16 = load ptr, ptr %5, align 8, !tbaa !3
  %17 = load ptr, ptr %8, align 8, !tbaa !22
  %18 = load ptr, ptr %7, align 8, !tbaa !20
  %19 = call i32 @NCONF_load_bio(ptr noundef %16, ptr noundef %17, ptr noundef %18)
  store i32 %19, ptr %9, align 4, !tbaa !24
  %20 = load ptr, ptr %8, align 8, !tbaa !22
  %21 = call i32 @BIO_free(ptr noundef %20)
  %22 = load i32, ptr %9, align 4, !tbaa !24
  store i32 %22, ptr %4, align 4
  store i32 1, ptr %10, align 4
  br label %23

23:                                               ; preds = %15, %14
  call void @llvm.lifetime.end.p0(i64 4, ptr %9) #8
  call void @llvm.lifetime.end.p0(i64 8, ptr %8) #8
  %24 = load i32, ptr %4, align 4
  ret i32 %24
}