; Function Attrs: nounwind uwtable
define i32 @NCONF_load_fp(ptr noundef %0, ptr noundef %1, ptr noundef %2) local_unnamed_addr #0 {
  %4 = tail call ptr @BIO_new_fp(ptr noundef %1, i32 noundef 0) #15
  %5 = icmp eq ptr %4, null
  br i1 %5, label %6, label %7

6:                                                ; preds = %3
  tail call void @ERR_new() #15
  tail call void @ERR_set_debug(ptr noundef nonnull @.str.1, i32 noundef 267, ptr noundef nonnull @__func__.NCONF_load_fp) #15
  tail call void (i32, i32, ptr, ...) @ERR_set_error(i32 noundef 14, i32 noundef 524295, ptr noundef null) #15
  br label %16

7:                                                ; preds = %3
  %8 = icmp eq ptr %0, null
  br i1 %8, label %9, label %10

9:                                                ; preds = %7
  tail call void @ERR_new() #15
  tail call void @ERR_set_debug(ptr noundef nonnull @.str.1, i32 noundef 279, ptr noundef nonnull @__func__.NCONF_load_bio) #15
  tail call void (i32, i32, ptr, ...) @ERR_set_error(i32 noundef 14, i32 noundef 105, ptr noundef null) #15
  br label %NCONF_load_bio.exit

10:                                               ; preds = %7
  %11 = load ptr, ptr %0, align 8, !tbaa !16
  %12 = getelementptr inbounds nuw i8, ptr %11, i64 40
  %13 = load ptr, ptr %12, align 8, !tbaa !17
  %14 = tail call i32 %13(ptr noundef nonnull %0, ptr noundef nonnull %4, ptr noundef %2) #15
  br label %NCONF_load_bio.exit

NCONF_load_bio.exit:                              ; preds = %9, %10
  %.0.i = phi i32 [ 0, %9 ], [ %14, %10 ]
  %15 = tail call i32 @BIO_free(ptr noundef nonnull %4) #15
  br label %16

16:                                               ; preds = %NCONF_load_bio.exit, %6
  %.0 = phi i32 [ 0, %6 ], [ %.0.i, %NCONF_load_bio.exit ]
  ret i32 %.0
}